target datalayout = "e-m:e-p270:32:32-p271:32:32-p272:64:64-i64:64-i128:128-f80:128-n8:16:32:64-S128"
target triple = "x86_64-pc-linux-gnu"

%"class.OpenImageIO::v3_1_0::DeepData" = type <{ ptr, i64, i32, [4 x i8] }>

; Function Attrs: mustprogress uwtable
define void @_ZN11OpenImageIO6v3_1_08DeepData5clearEv(ptr noundef nonnull align 8 dereferenceable(20) %0) #6 align 2 {
  %2 = alloca ptr, align 8
  store ptr %0, ptr %2, align 8, !tbaa !3
  %3 = load ptr, ptr %2, align 8
  %4 = getelementptr inbounds nuw %"class.OpenImageIO::v3_1_0::DeepData", ptr %3, i32 0, i32 1
  store i64 0, ptr %4, align 8, !tbaa !13
  %5 = getelementptr inbounds nuw %"class.OpenImageIO::v3_1_0::DeepData", ptr %3, i32 0, i32 2
  store i32 0, ptr %5, align 8, !tbaa !14
  %6 = getelementptr inbounds nuw %"class.OpenImageIO::v3_1_0::DeepData", ptr %3, i32 0, i32 0
  %7 = load ptr, ptr %6, align 8, !tbaa !8
  %8 = icmp ne ptr %7, null
  br i1 %8, label %9, label %12

9:                                                ; preds = %1
  %10 = getelementptr inbounds nuw %"class.OpenImageIO::v3_1_0::DeepData", ptr %3, i32 0, i32 0
  %11 = load ptr, ptr %10, align 8, !tbaa !8
  call void @_ZN11OpenImageIO6v3_1_08DeepData4Impl5clearEv(ptr noundef nonnull align 8 dereferenceable(250) %11)
  br label %12

12:                                               ; preds = %9, %1
  ret void
}