; Function Attrs: mustprogress nounwind uwtable
define void @_ZN11OpenImageIO6v3_1_08DeepData5clearEv(ptr noundef nonnull align 8 captures(none) dereferenceable(20) initializes((8, 20)) %0) local_unnamed_addr #6 align 2 {
  %2 = getelementptr inbounds nuw i8, ptr %0, i64 8
  store i64 0, ptr %2, align 8, !tbaa !62
  %3 = getelementptr inbounds nuw i8, ptr %0, i64 16
  store i32 0, ptr %3, align 8, !tbaa !63
  %4 = load ptr, ptr %0, align 8, !tbaa !35
  %.not = icmp eq ptr %4, null
  br i1 %.not, label %6, label %5

5:                                                ; preds = %1
  tail call void @_ZN11OpenImageIO6v3_1_08DeepData4Impl5clearEv(ptr noundef nonnull align 8 dereferenceable(250) %4)
  br label %6

6:                                                ; preds = %5, %1
  ret void
}